target datalayout = "e-m:e-p270:32:32-p271:32:32-p272:64:64-i64:64-i128:128-f80:128-n8:16:32:64-S128"
target triple = "x86_64-pc-linux-gnu"

%class.ReservedSpace = type <{ ptr, i64, i64, i64, i64, i8, [3 x i8], i32, i8, [7 x i8] }>

; Function Attrs: mustprogress nounwind uwtable
define hidden void @_ZN13ReservedSpace18initialize_membersEPcmmmbb(ptr noundef nonnull align 8 dereferenceable(49) %0, ptr noundef %1, i64 noundef %2, i64 noundef %3, i64 noundef %4, i1 noundef zeroext %5, i1 noundef zeroext %6) #1 align 2 {
  %8 = alloca ptr, align 8
  %9 = alloca ptr, align 8
  %10 = alloca i64, align 8
  %11 = alloca i64, align 8
  %12 = alloca i64, align 8
  %13 = alloca i8, align 1
  %14 = alloca i8, align 1
  store ptr %0, ptr %8, align 8
  store ptr %1, ptr %9, align 8
  store i64 %2, ptr %10, align 8
  store i64 %3, ptr %11, align 8
  store i64 %4, ptr %12, align 8
  %15 = zext i1 %5 to i8
  store i8 %15, ptr %13, align 1
  %16 = zext i1 %6 to i8
  store i8 %16, ptr %14, align 1
  %17 = load ptr, ptr %8, align 8
  %18 = load ptr, ptr %9, align 8
  %19 = getelementptr inbounds %class.ReservedSpace, ptr %17, i32 0, i32 0
  store ptr %18, ptr %19, align 8
  %20 = load i64, ptr %10, align 8
  %21 = getelementptr inbounds %class.ReservedSpace, ptr %17, i32 0, i32 1
  store i64 %20, ptr %21, align 8
  %22 = load i64, ptr %11, align 8
  %23 = getelementptr inbounds %class.ReservedSpace, ptr %17, i32 0, i32 3
  store i64 %22, ptr %23, align 8
  %24 = load i64, ptr %12, align 8
  %25 = getelementptr inbounds %class.ReservedSpace, ptr %17, i32 0, i32 4
  store i64 %24, ptr %25, align 8
  %26 = load i8, ptr %13, align 1
  %27 = trunc i8 %26 to i1
  %28 = getelementptr inbounds %class.ReservedSpace, ptr %17, i32 0, i32 5
  %29 = zext i1 %27 to i8
  store i8 %29, ptr %28, align 8
  %30 = load i8, ptr %14, align 1
  %31 = trunc i8 %30 to i1
  %32 = getelementptr inbounds %class.ReservedSpace, ptr %17, i32 0, i32 8
  %33 = zext i1 %31 to i8
  store i8 %33, ptr %32, align 8
  %34 = getelementptr inbounds %class.ReservedSpace, ptr %17, i32 0, i32 2
  store i64 0, ptr %34, align 8
  ret void
}

; Function Attrs: mustprogress nounwind uwtable
define hidden void @_ZN13ReservedSpace13clear_membersEv(ptr noundef nonnull align 8 dereferenceable(49) %0) #1 align 2 {
  %2 = alloca ptr, align 8
  store ptr %0, ptr %2, align 8
  %3 = load ptr, ptr %2, align 8
  call void @_ZN13ReservedSpace18initialize_membersEPcmmmbb(ptr noundef nonnull align 8 dereferenceable(49) %3, ptr noundef null, i64 noundef 0, i64 noundef 0, i64 noundef 0, i1 noundef zeroext false, i1 noundef zeroext false)
  ret void
}

; Function Attrs: mustprogress nounwind uwtable
define linkonce_odr hidden noundef zeroext i1 @_ZNK13ReservedSpace7specialEv(ptr noundef nonnull align 8 dereferenceable(49) %0) #1 comdat align 2 {
  %2 = alloca ptr, align 8
  store ptr %0, ptr %2, align 8
  %3 = load ptr, ptr %2, align 8
  %4 = getelementptr inbounds %class.ReservedSpace, ptr %3, i32 0, i32 5
  %5 = load i8, ptr %4, align 8
  %6 = trunc i8 %5 to i1
  ret i1 %6
}

; Function Attrs: mustprogress nounwind uwtable
define linkonce_odr hidden noundef zeroext i1 @_ZNK13ReservedSpace11is_reservedEv(ptr noundef nonnull align 8 dereferenceable(49) %0) #1 comdat align 2 {
  %2 = alloca ptr, align 8
  store ptr %0, ptr %2, align 8
  %3 = load ptr, ptr %2, align 8
  %4 = getelementptr inbounds %class.ReservedSpace, ptr %3, i32 0, i32 0
  %5 = load ptr, ptr %4, align 8
  %6 = icmp ne ptr %5, null
  ret i1 %6
}

; Function Attrs: mustprogress nounwind uwtable
define hidden void @_ZN13ReservedSpace7releaseEv(ptr noundef nonnull align 8 dereferenceable(49) %0) #1 align 2 {
  %2 = alloca ptr, align 8
  %3 = alloca ptr, align 8
  %4 = alloca i64, align 8
  store ptr %0, ptr %2, align 8
  %5 = load ptr, ptr %2, align 8
  %6 = call noundef zeroext i1 @_ZNK13ReservedSpace11is_reservedEv(ptr noundef nonnull align 8 dereferenceable(49) %5)
  br i1 %6, label %7, label %38

7:                                                ; preds = %1
  %8 = getelementptr inbounds %class.ReservedSpace, ptr %5, i32 0, i32 0
  %9 = load ptr, ptr %8, align 8
  %10 = getelementptr inbounds %class.ReservedSpace, ptr %5, i32 0, i32 2
  %11 = load i64, ptr %10, align 8
  %12 = sub i64 0, %11
  %13 = getelementptr inbounds i8, ptr %9, i64 %12
  store ptr %13, ptr %3, align 8
  %14 = getelementptr inbounds %class.ReservedSpace, ptr %5, i32 0, i32 1
  %15 = load i64, ptr %14, align 8
  %16 = getelementptr inbounds %class.ReservedSpace, ptr %5, i32 0, i32 2
  %17 = load i64, ptr %16, align 8
  %18 = add i64 %15, %17
  store i64 %18, ptr %4, align 8
  %19 = call noundef zeroext i1 @_ZNK13ReservedSpace7specialEv(ptr noundef nonnull align 8 dereferenceable(49) %5)
  br i1 %19, label %20, label %33

20:                                               ; preds = %7
  %21 = getelementptr inbounds %class.ReservedSpace, ptr %5, i32 0, i32 7
  %22 = load i32, ptr %21, align 4
  %23 = icmp ne i32 %22, -1
  br i1 %23, label %24, label %28

24:                                               ; preds = %20
  %25 = load ptr, ptr %3, align 8
  %26 = load i64, ptr %4, align 8
  %27 = call noundef zeroext i1 @_ZN2os12unmap_memoryEPcm(ptr noundef %25, i64 noundef %26)
  br label %32

28:                                               ; preds = %20
  %29 = load ptr, ptr %3, align 8
  %30 = load i64, ptr %4, align 8
  %31 = call noundef zeroext i1 @_ZN2os22release_memory_specialEPcm(ptr noundef %29, i64 noundef %30)
  br label %32

32:                                               ; preds = %28, %24
  br label %37

33:                                               ; preds = %7
  %34 = load ptr, ptr %3, align 8
  %35 = load i64, ptr %4, align 8
  %36 = call noundef zeroext i1 @_ZN2os14release_memoryEPcm(ptr noundef %34, i64 noundef %35)
  br label %37

37:                                               ; preds = %33, %32
  call void @_ZN13ReservedSpace13clear_membersEv(ptr noundef nonnull align 8 dereferenceable(49) %5)
  br label %38

38:                                               ; preds = %37, %1
  ret void
}