; Function Attrs: mustprogress nounwind uwtable
define hidden void @_ZN13ReservedSpace7releaseEv(ptr nocapture noundef nonnull align 8 dereferenceable(49) %0) local_unnamed_addr #1 align 2 {
  %2 = load ptr, ptr %0, align 8
  %.not6 = icmp eq ptr %2, null
  br i1 %.not6, label %25, label %3

3:                                                ; preds = %1
  %4 = getelementptr inbounds i8, ptr %0, i64 16
  %5 = load i64, ptr %4, align 8
  %6 = sub i64 0, %5
  %7 = getelementptr inbounds i8, ptr %2, i64 %6
  %8 = getelementptr inbounds i8, ptr %0, i64 8
  %9 = load i64, ptr %8, align 8
  %10 = add i64 %9, %5
  %11 = getelementptr inbounds i8, ptr %0, i64 40
  %12 = load i8, ptr %11, align 8
  %13 = trunc i8 %12 to i1
  br i1 %13, label %14, label %21

14:                                               ; preds = %3
  %15 = getelementptr inbounds i8, ptr %0, i64 44
  %16 = load i32, ptr %15, align 4
  %.not = icmp eq i32 %16, -1
  br i1 %.not, label %19, label %17

17:                                               ; preds = %14
  %18 = tail call noundef zeroext i1 @_ZN2os12unmap_memoryEPcm(ptr noundef nonnull %7, i64 noundef %10) #13
  br label %23

19:                                               ; preds = %14
  %20 = tail call noundef zeroext i1 @_ZN2os22release_memory_specialEPcm(ptr noundef nonnull %7, i64 noundef %10) #13
  br label %23

21:                                               ; preds = %3
  %22 = tail call noundef zeroext i1 @_ZN2os14release_memoryEPcm(ptr noundef nonnull %7, i64 noundef %10) #13
  br label %23

23:                                               ; preds = %17, %19, %21
  %24 = getelementptr inbounds i8, ptr %0, i64 48
  store i8 0, ptr %24, align 8
  tail call void @llvm.memset.p0.i64(ptr noundef nonnull align 8 dereferenceable(41) %0, i8 0, i64 41, i1 false)
  br label %25

25:                                               ; preds = %23, %1
  ret void
}